target datalayout = "e-m:e-p270:32:32-p271:32:32-p272:64:64-i64:64-i128:128-f80:128-n8:16:32:64-S128"
target triple = "x86_64-pc-linux-gnu"

; Function Attrs: alwaysinline nounwind willreturn memory(none) uwtable
define internal zeroext i8 @av_clip_uint8_c(i32 noundef %0) #4 {
  %2 = alloca i8, align 1
  %3 = alloca i32, align 4
  store i32 %0, ptr %3, align 4, !tbaa !14
  %4 = load i32, ptr %3, align 4, !tbaa !14
  %5 = and i32 %4, -256
  %6 = icmp ne i32 %5, 0
  br i1 %6, label %7, label %12

7:                                                ; preds = %1
  %8 = load i32, ptr %3, align 4, !tbaa !14
  %9 = xor i32 %8, -1
  %10 = ashr i32 %9, 31
  %11 = trunc i32 %10 to i8
  store i8 %11, ptr %2, align 1
  br label %15

12:                                               ; preds = %1
  %13 = load i32, ptr %3, align 4, !tbaa !14
  %14 = trunc i32 %13 to i8
  store i8 %14, ptr %2, align 1
  br label %15

15:                                               ; preds = %12, %7
  %16 = load i8, ptr %2, align 1
  ret i8 %16
}

; Function Attrs: nounwind uwtable
define internal void @vp8_idct_dc_add_c(ptr noundef %0, ptr noundef %1, i64 noundef %2) #1 {
  %4 = alloca ptr, align 8
  %5 = alloca ptr, align 8
  %6 = alloca i64, align 8
  %7 = alloca i32, align 4
  %8 = alloca i32, align 4
  store ptr %0, ptr %4, align 8, !tbaa !10
  store ptr %1, ptr %5, align 8, !tbaa !134
  store i64 %2, ptr %6, align 8, !tbaa !12
  call void @llvm.lifetime.start.p0(i64 4, ptr %7) #6
  call void @llvm.lifetime.start.p0(i64 4, ptr %8) #6
  %9 = load ptr, ptr %5, align 8, !tbaa !134
  %10 = getelementptr inbounds i16, ptr %9, i64 0
  %11 = load i16, ptr %10, align 2, !tbaa !136
  %12 = sext i16 %11 to i32
  %13 = add nsw i32 %12, 4
  %14 = ashr i32 %13, 3
  store i32 %14, ptr %8, align 4, !tbaa !14
  %15 = load ptr, ptr %5, align 8, !tbaa !134
  %16 = getelementptr inbounds i16, ptr %15, i64 0
  store i16 0, ptr %16, align 2, !tbaa !136
  store i32 0, ptr %7, align 4, !tbaa !14
  br label %17

17:                                               ; preds = %60, %3
  %18 = load i32, ptr %7, align 4, !tbaa !14
  %19 = icmp slt i32 %18, 4
  br i1 %19, label %20, label %63

20:                                               ; preds = %17
  %21 = load ptr, ptr %4, align 8, !tbaa !10
  %22 = getelementptr inbounds i8, ptr %21, i64 0
  %23 = load i8, ptr %22, align 1, !tbaa !18
  %24 = zext i8 %23 to i32
  %25 = load i32, ptr %8, align 4, !tbaa !14
  %26 = add nsw i32 %24, %25
  %27 = call zeroext i8 @av_clip_uint8_c(i32 noundef %26) #7
  %28 = load ptr, ptr %4, align 8, !tbaa !10
  %29 = getelementptr inbounds i8, ptr %28, i64 0
  store i8 %27, ptr %29, align 1, !tbaa !18
  %30 = load ptr, ptr %4, align 8, !tbaa !10
  %31 = getelementptr inbounds i8, ptr %30, i64 1
  %32 = load i8, ptr %31, align 1, !tbaa !18
  %33 = zext i8 %32 to i32
  %34 = load i32, ptr %8, align 4, !tbaa !14
  %35 = add nsw i32 %33, %34
  %36 = call zeroext i8 @av_clip_uint8_c(i32 noundef %35) #7
  %37 = load ptr, ptr %4, align 8, !tbaa !10
  %38 = getelementptr inbounds i8, ptr %37, i64 1
  store i8 %36, ptr %38, align 1, !tbaa !18
  %39 = load ptr, ptr %4, align 8, !tbaa !10
  %40 = getelementptr inbounds i8, ptr %39, i64 2
  %41 = load i8, ptr %40, align 1, !tbaa !18
  %42 = zext i8 %41 to i32
  %43 = load i32, ptr %8, align 4, !tbaa !14
  %44 = add nsw i32 %42, %43
  %45 = call zeroext i8 @av_clip_uint8_c(i32 noundef %44) #7
  %46 = load ptr, ptr %4, align 8, !tbaa !10
  %47 = getelementptr inbounds i8, ptr %46, i64 2
  store i8 %45, ptr %47, align 1, !tbaa !18
  %48 = load ptr, ptr %4, align 8, !tbaa !10
  %49 = getelementptr inbounds i8, ptr %48, i64 3
  %50 = load i8, ptr %49, align 1, !tbaa !18
  %51 = zext i8 %50 to i32
  %52 = load i32, ptr %8, align 4, !tbaa !14
  %53 = add nsw i32 %51, %52
  %54 = call zeroext i8 @av_clip_uint8_c(i32 noundef %53) #7
  %55 = load ptr, ptr %4, align 8, !tbaa !10
  %56 = getelementptr inbounds i8, ptr %55, i64 3
  store i8 %54, ptr %56, align 1, !tbaa !18
  %57 = load i64, ptr %6, align 8, !tbaa !12
  %58 = load ptr, ptr %4, align 8, !tbaa !10
  %59 = getelementptr inbounds i8, ptr %58, i64 %57
  store ptr %59, ptr %4, align 8, !tbaa !10
  br label %60

60:                                               ; preds = %20
  %61 = load i32, ptr %7, align 4, !tbaa !14
  %62 = add nsw i32 %61, 1
  store i32 %62, ptr %7, align 4, !tbaa !14
  br label %17, !llvm.loop !155

63:                                               ; preds = %17
  call void @llvm.lifetime.end.p0(i64 4, ptr %8) #6
  call void @llvm.lifetime.end.p0(i64 4, ptr %7) #6
  ret void
}

; Function Attrs: nounwind uwtable
define internal void @vp8_idct_dc_add4y_c(ptr noundef %0, ptr noundef %1, i64 noundef %2) #1 {
  %4 = alloca ptr, align 8
  %5 = alloca ptr, align 8
  %6 = alloca i64, align 8
  store ptr %0, ptr %4, align 8, !tbaa !10
  store ptr %1, ptr %5, align 8, !tbaa !134
  store i64 %2, ptr %6, align 8, !tbaa !12
  %7 = load ptr, ptr %4, align 8, !tbaa !10
  %8 = getelementptr inbounds i8, ptr %7, i64 0
  %9 = load ptr, ptr %5, align 8, !tbaa !134
  %10 = getelementptr inbounds [16 x i16], ptr %9, i64 0
  %11 = getelementptr inbounds [16 x i16], ptr %10, i64 0, i64 0
  %12 = load i64, ptr %6, align 8, !tbaa !12
  call void @vp8_idct_dc_add_c(ptr noundef %8, ptr noundef %11, i64 noundef %12)
  %13 = load ptr, ptr %4, align 8, !tbaa !10
  %14 = getelementptr inbounds i8, ptr %13, i64 4
  %15 = load ptr, ptr %5, align 8, !tbaa !134
  %16 = getelementptr inbounds [16 x i16], ptr %15, i64 1
  %17 = getelementptr inbounds [16 x i16], ptr %16, i64 0, i64 0
  %18 = load i64, ptr %6, align 8, !tbaa !12
  call void @vp8_idct_dc_add_c(ptr noundef %14, ptr noundef %17, i64 noundef %18)
  %19 = load ptr, ptr %4, align 8, !tbaa !10
  %20 = getelementptr inbounds i8, ptr %19, i64 8
  %21 = load ptr, ptr %5, align 8, !tbaa !134
  %22 = getelementptr inbounds [16 x i16], ptr %21, i64 2
  %23 = getelementptr inbounds [16 x i16], ptr %22, i64 0, i64 0
  %24 = load i64, ptr %6, align 8, !tbaa !12
  call void @vp8_idct_dc_add_c(ptr noundef %20, ptr noundef %23, i64 noundef %24)
  %25 = load ptr, ptr %4, align 8, !tbaa !10
  %26 = getelementptr inbounds i8, ptr %25, i64 12
  %27 = load ptr, ptr %5, align 8, !tbaa !134
  %28 = getelementptr inbounds [16 x i16], ptr %27, i64 3
  %29 = getelementptr inbounds [16 x i16], ptr %28, i64 0, i64 0
  %30 = load i64, ptr %6, align 8, !tbaa !12
  call void @vp8_idct_dc_add_c(ptr noundef %26, ptr noundef %29, i64 noundef %30)
  ret void
}