; Function Attrs: nofree norecurse nosync nounwind memory(argmem: readwrite) uwtable
define internal void @vp8_idct_dc_add4y_c(ptr noundef captures(none) %0, ptr noundef captures(none) %1, i64 noundef %2) #1 {
.lver.check75:
  %3 = load i16, ptr %1, align 2, !tbaa !126
  %4 = sext i16 %3 to i32
  %5 = add nsw i32 %4, 4
  %6 = ashr i32 %5, 3
  store i16 0, ptr %1, align 2, !tbaa !126
  %ident.check74.not = icmp eq i64 %2, 1
  br i1 %ident.check74.not, label %.ph76, label %.ph76.lver.orig

.ph76.lver.orig:                                  ; preds = %.lver.check75, %.ph76.lver.orig
  %.028.i.lver.orig = phi ptr [ %30, %.ph76.lver.orig ], [ %0, %.lver.check75 ]
  %.01727.i.lver.orig = phi i32 [ %31, %.ph76.lver.orig ], [ 0, %.lver.check75 ]
  %7 = load i8, ptr %.028.i.lver.orig, align 1, !tbaa !10
  %8 = zext i8 %7 to i32
  %9 = add nsw i32 %6, %8
  %.not.i.i.lver.orig = icmp ult i32 %9, 256
  %isnotneg.i.i.lver.orig = icmp sgt i32 %9, -1
  %10 = sext i1 %isnotneg.i.i.lver.orig to i8
  %11 = trunc nuw i32 %9 to i8
  %.0.i.i.lver.orig = select i1 %.not.i.i.lver.orig, i8 %11, i8 %10
  store i8 %.0.i.i.lver.orig, ptr %.028.i.lver.orig, align 1, !tbaa !10
  %12 = getelementptr inbounds nuw i8, ptr %.028.i.lver.orig, i64 1
  %13 = load i8, ptr %12, align 1, !tbaa !10
  %14 = zext i8 %13 to i32
  %15 = add nsw i32 %6, %14
  %.not.i18.i.lver.orig = icmp ult i32 %15, 256
  %isnotneg.i19.i.lver.orig = icmp sgt i32 %15, -1
  %16 = sext i1 %isnotneg.i19.i.lver.orig to i8
  %17 = trunc nuw i32 %15 to i8
  %.0.i20.i.lver.orig = select i1 %.not.i18.i.lver.orig, i8 %17, i8 %16
  store i8 %.0.i20.i.lver.orig, ptr %12, align 1, !tbaa !10
  %18 = getelementptr inbounds nuw i8, ptr %.028.i.lver.orig, i64 2
  %19 = load i8, ptr %18, align 1, !tbaa !10
  %20 = zext i8 %19 to i32
  %21 = add nsw i32 %6, %20
  %.not.i21.i.lver.orig = icmp ult i32 %21, 256
  %isnotneg.i22.i.lver.orig = icmp sgt i32 %21, -1
  %22 = sext i1 %isnotneg.i22.i.lver.orig to i8
  %23 = trunc nuw i32 %21 to i8
  %.0.i23.i.lver.orig = select i1 %.not.i21.i.lver.orig, i8 %23, i8 %22
  store i8 %.0.i23.i.lver.orig, ptr %18, align 1, !tbaa !10
  %24 = getelementptr inbounds nuw i8, ptr %.028.i.lver.orig, i64 3
  %25 = load i8, ptr %24, align 1, !tbaa !10
  %26 = zext i8 %25 to i32
  %27 = add nsw i32 %6, %26
  %.not.i24.i.lver.orig = icmp ult i32 %27, 256
  %isnotneg.i25.i.lver.orig = icmp sgt i32 %27, -1
  %28 = sext i1 %isnotneg.i25.i.lver.orig to i8
  %29 = trunc nuw i32 %27 to i8
  %.0.i26.i.lver.orig = select i1 %.not.i24.i.lver.orig, i8 %29, i8 %28
  store i8 %.0.i26.i.lver.orig, ptr %24, align 1, !tbaa !10
  %30 = getelementptr inbounds i8, ptr %.028.i.lver.orig, i64 %2
  %31 = add nuw nsw i32 %.01727.i.lver.orig, 1
  %exitcond.not.i.lver.orig = icmp eq i32 %31, 4
  br i1 %exitcond.not.i.lver.orig, label %.lver.check68, label %.ph76.lver.orig, !llvm.loop !149

.ph76:                                            ; preds = %.lver.check75
  %scevgep78 = getelementptr nuw i8, ptr %0, i64 2
  %load_initial79 = load i8, ptr %scevgep78, align 1
  br label %32

32:                                               ; preds = %32, %.ph76
  %store_forwarded80 = phi i8 [ %load_initial79, %.ph76 ], [ %.0.i26.i, %32 ]
  %.028.i = phi ptr [ %0, %.ph76 ], [ %55, %32 ]
  %.01727.i = phi i32 [ 0, %.ph76 ], [ %56, %32 ]
  %33 = load i8, ptr %.028.i, align 1, !tbaa !10
  %34 = zext i8 %33 to i32
  %35 = add nsw i32 %6, %34
  %.not.i.i = icmp ult i32 %35, 256
  %isnotneg.i.i = icmp sgt i32 %35, -1
  %36 = sext i1 %isnotneg.i.i to i8
  %37 = trunc nuw i32 %35 to i8
  %.0.i.i = select i1 %.not.i.i, i8 %37, i8 %36
  store i8 %.0.i.i, ptr %.028.i, align 1, !tbaa !10
  %38 = getelementptr inbounds nuw i8, ptr %.028.i, i64 1
  %39 = load i8, ptr %38, align 1, !tbaa !10
  %40 = zext i8 %39 to i32
  %41 = add nsw i32 %6, %40
  %.not.i18.i = icmp ult i32 %41, 256
  %isnotneg.i19.i = icmp sgt i32 %41, -1
  %42 = sext i1 %isnotneg.i19.i to i8
  %43 = trunc nuw i32 %41 to i8
  %.0.i20.i = select i1 %.not.i18.i, i8 %43, i8 %42
  store i8 %.0.i20.i, ptr %38, align 1, !tbaa !10
  %44 = getelementptr inbounds nuw i8, ptr %.028.i, i64 2
  %45 = zext i8 %store_forwarded80 to i32
  %46 = add nsw i32 %6, %45
  %.not.i21.i = icmp ult i32 %46, 256
  %isnotneg.i22.i = icmp sgt i32 %46, -1
  %47 = sext i1 %isnotneg.i22.i to i8
  %48 = trunc nuw i32 %46 to i8
  %.0.i23.i = select i1 %.not.i21.i, i8 %48, i8 %47
  store i8 %.0.i23.i, ptr %44, align 1, !tbaa !10
  %49 = getelementptr inbounds nuw i8, ptr %.028.i, i64 3
  %50 = load i8, ptr %49, align 1, !tbaa !10
  %51 = zext i8 %50 to i32
  %52 = add nsw i32 %6, %51
  %.not.i24.i = icmp ult i32 %52, 256
  %isnotneg.i25.i = icmp sgt i32 %52, -1
  %53 = sext i1 %isnotneg.i25.i to i8
  %54 = trunc nuw i32 %52 to i8
  %.0.i26.i = select i1 %.not.i24.i, i8 %54, i8 %53
  store i8 %.0.i26.i, ptr %49, align 1, !tbaa !10
  %55 = getelementptr inbounds nuw i8, ptr %.028.i, i64 %2
  %56 = add nuw nsw i32 %.01727.i, 1
  %exitcond.not.i = icmp eq i32 %56, 4
  br i1 %exitcond.not.i, label %.lver.check68, label %32, !llvm.loop !149

.lver.check68:                                    ; preds = %.ph76.lver.orig, %32
  %57 = getelementptr inbounds nuw i8, ptr %0, i64 4
  %58 = getelementptr inbounds nuw i8, ptr %1, i64 32
  %59 = load i16, ptr %58, align 2, !tbaa !126
  %60 = sext i16 %59 to i32
  %61 = add nsw i32 %60, 4
  %62 = ashr i32 %61, 3
  store i16 0, ptr %58, align 2, !tbaa !126
  %ident.check67.not = icmp eq i64 %2, 1
  br i1 %ident.check67.not, label %.ph69, label %.ph69.lver.orig

.ph69.lver.orig:                                  ; preds = %.lver.check68, %.ph69.lver.orig
  %.028.i11.lver.orig = phi ptr [ %86, %.ph69.lver.orig ], [ %57, %.lver.check68 ]
  %.01727.i12.lver.orig = phi i32 [ %87, %.ph69.lver.orig ], [ 0, %.lver.check68 ]
  %63 = load i8, ptr %.028.i11.lver.orig, align 1, !tbaa !10
  %64 = zext i8 %63 to i32
  %65 = add nsw i32 %62, %64
  %.not.i.i13.lver.orig = icmp ult i32 %65, 256
  %isnotneg.i.i14.lver.orig = icmp sgt i32 %65, -1
  %66 = sext i1 %isnotneg.i.i14.lver.orig to i8
  %67 = trunc nuw i32 %65 to i8
  %.0.i.i15.lver.orig = select i1 %.not.i.i13.lver.orig, i8 %67, i8 %66
  store i8 %.0.i.i15.lver.orig, ptr %.028.i11.lver.orig, align 1, !tbaa !10
  %68 = getelementptr inbounds nuw i8, ptr %.028.i11.lver.orig, i64 1
  %69 = load i8, ptr %68, align 1, !tbaa !10
  %70 = zext i8 %69 to i32
  %71 = add nsw i32 %62, %70
  %.not.i18.i16.lver.orig = icmp ult i32 %71, 256
  %isnotneg.i19.i17.lver.orig = icmp sgt i32 %71, -1
  %72 = sext i1 %isnotneg.i19.i17.lver.orig to i8
  %73 = trunc nuw i32 %71 to i8
  %.0.i20.i18.lver.orig = select i1 %.not.i18.i16.lver.orig, i8 %73, i8 %72
  store i8 %.0.i20.i18.lver.orig, ptr %68, align 1, !tbaa !10
  %74 = getelementptr inbounds nuw i8, ptr %.028.i11.lver.orig, i64 2
  %75 = load i8, ptr %74, align 1, !tbaa !10
  %76 = zext i8 %75 to i32
  %77 = add nsw i32 %62, %76
  %.not.i21.i19.lver.orig = icmp ult i32 %77, 256
  %isnotneg.i22.i20.lver.orig = icmp sgt i32 %77, -1
  %78 = sext i1 %isnotneg.i22.i20.lver.orig to i8
  %79 = trunc nuw i32 %77 to i8
  %.0.i23.i21.lver.orig = select i1 %.not.i21.i19.lver.orig, i8 %79, i8 %78
  store i8 %.0.i23.i21.lver.orig, ptr %74, align 1, !tbaa !10
  %80 = getelementptr inbounds nuw i8, ptr %.028.i11.lver.orig, i64 3
  %81 = load i8, ptr %80, align 1, !tbaa !10
  %82 = zext i8 %81 to i32
  %83 = add nsw i32 %62, %82
  %.not.i24.i22.lver.orig = icmp ult i32 %83, 256
  %isnotneg.i25.i23.lver.orig = icmp sgt i32 %83, -1
  %84 = sext i1 %isnotneg.i25.i23.lver.orig to i8
  %85 = trunc nuw i32 %83 to i8
  %.0.i26.i24.lver.orig = select i1 %.not.i24.i22.lver.orig, i8 %85, i8 %84
  store i8 %.0.i26.i24.lver.orig, ptr %80, align 1, !tbaa !10
  %86 = getelementptr inbounds i8, ptr %.028.i11.lver.orig, i64 %2
  %87 = add nuw nsw i32 %.01727.i12.lver.orig, 1
  %exitcond.not.i25.lver.orig = icmp eq i32 %87, 4
  br i1 %exitcond.not.i25.lver.orig, label %.lver.check61, label %.ph69.lver.orig, !llvm.loop !149

.ph69:                                            ; preds = %.lver.check68
  %scevgep71 = getelementptr i8, ptr %0, i64 6
  %load_initial72 = load i8, ptr %scevgep71, align 1
  br label %88

88:                                               ; preds = %88, %.ph69
  %store_forwarded73 = phi i8 [ %load_initial72, %.ph69 ], [ %.0.i26.i24, %88 ]
  %.028.i11 = phi ptr [ %57, %.ph69 ], [ %111, %88 ]
  %.01727.i12 = phi i32 [ 0, %.ph69 ], [ %112, %88 ]
  %89 = load i8, ptr %.028.i11, align 1, !tbaa !10
  %90 = zext i8 %89 to i32
  %91 = add nsw i32 %62, %90
  %.not.i.i13 = icmp ult i32 %91, 256
  %isnotneg.i.i14 = icmp sgt i32 %91, -1
  %92 = sext i1 %isnotneg.i.i14 to i8
  %93 = trunc nuw i32 %91 to i8
  %.0.i.i15 = select i1 %.not.i.i13, i8 %93, i8 %92
  store i8 %.0.i.i15, ptr %.028.i11, align 1, !tbaa !10
  %94 = getelementptr inbounds nuw i8, ptr %.028.i11, i64 1
  %95 = load i8, ptr %94, align 1, !tbaa !10
  %96 = zext i8 %95 to i32
  %97 = add nsw i32 %62, %96
  %.not.i18.i16 = icmp ult i32 %97, 256
  %isnotneg.i19.i17 = icmp sgt i32 %97, -1
  %98 = sext i1 %isnotneg.i19.i17 to i8
  %99 = trunc nuw i32 %97 to i8
  %.0.i20.i18 = select i1 %.not.i18.i16, i8 %99, i8 %98
  store i8 %.0.i20.i18, ptr %94, align 1, !tbaa !10
  %100 = getelementptr inbounds nuw i8, ptr %.028.i11, i64 2
  %101 = zext i8 %store_forwarded73 to i32
  %102 = add nsw i32 %62, %101
  %.not.i21.i19 = icmp ult i32 %102, 256
  %isnotneg.i22.i20 = icmp sgt i32 %102, -1
  %103 = sext i1 %isnotneg.i22.i20 to i8
  %104 = trunc nuw i32 %102 to i8
  %.0.i23.i21 = select i1 %.not.i21.i19, i8 %104, i8 %103
  store i8 %.0.i23.i21, ptr %100, align 1, !tbaa !10
  %105 = getelementptr inbounds nuw i8, ptr %.028.i11, i64 3
  %106 = load i8, ptr %105, align 1, !tbaa !10
  %107 = zext i8 %106 to i32
  %108 = add nsw i32 %62, %107
  %.not.i24.i22 = icmp ult i32 %108, 256
  %isnotneg.i25.i23 = icmp sgt i32 %108, -1
  %109 = sext i1 %isnotneg.i25.i23 to i8
  %110 = trunc nuw i32 %108 to i8
  %.0.i26.i24 = select i1 %.not.i24.i22, i8 %110, i8 %109
  store i8 %.0.i26.i24, ptr %105, align 1, !tbaa !10
  %111 = getelementptr inbounds nuw i8, ptr %.028.i11, i64 %2
  %112 = add nuw nsw i32 %.01727.i12, 1
  %exitcond.not.i25 = icmp eq i32 %112, 4
  br i1 %exitcond.not.i25, label %.lver.check61, label %88, !llvm.loop !149

.lver.check61:                                    ; preds = %.ph69.lver.orig, %88
  %113 = getelementptr inbounds nuw i8, ptr %0, i64 8
  %114 = getelementptr inbounds nuw i8, ptr %1, i64 64
  %115 = load i16, ptr %114, align 2, !tbaa !126
  %116 = sext i16 %115 to i32
  %117 = add nsw i32 %116, 4
  %118 = ashr i32 %117, 3
  store i16 0, ptr %114, align 2, !tbaa !126
  %ident.check60.not = icmp eq i64 %2, 1
  br i1 %ident.check60.not, label %.ph62, label %.ph62.lver.orig

.ph62.lver.orig:                                  ; preds = %.lver.check61, %.ph62.lver.orig
  %.028.i27.lver.orig = phi ptr [ %142, %.ph62.lver.orig ], [ %113, %.lver.check61 ]
  %.01727.i28.lver.orig = phi i32 [ %143, %.ph62.lver.orig ], [ 0, %.lver.check61 ]
  %119 = load i8, ptr %.028.i27.lver.orig, align 1, !tbaa !10
  %120 = zext i8 %119 to i32
  %121 = add nsw i32 %118, %120
  %.not.i.i29.lver.orig = icmp ult i32 %121, 256
  %isnotneg.i.i30.lver.orig = icmp sgt i32 %121, -1
  %122 = sext i1 %isnotneg.i.i30.lver.orig to i8
  %123 = trunc nuw i32 %121 to i8
  %.0.i.i31.lver.orig = select i1 %.not.i.i29.lver.orig, i8 %123, i8 %122
  store i8 %.0.i.i31.lver.orig, ptr %.028.i27.lver.orig, align 1, !tbaa !10
  %124 = getelementptr inbounds nuw i8, ptr %.028.i27.lver.orig, i64 1
  %125 = load i8, ptr %124, align 1, !tbaa !10
  %126 = zext i8 %125 to i32
  %127 = add nsw i32 %118, %126
  %.not.i18.i32.lver.orig = icmp ult i32 %127, 256
  %isnotneg.i19.i33.lver.orig = icmp sgt i32 %127, -1
  %128 = sext i1 %isnotneg.i19.i33.lver.orig to i8
  %129 = trunc nuw i32 %127 to i8
  %.0.i20.i34.lver.orig = select i1 %.not.i18.i32.lver.orig, i8 %129, i8 %128
  store i8 %.0.i20.i34.lver.orig, ptr %124, align 1, !tbaa !10
  %130 = getelementptr inbounds nuw i8, ptr %.028.i27.lver.orig, i64 2
  %131 = load i8, ptr %130, align 1, !tbaa !10
  %132 = zext i8 %131 to i32
  %133 = add nsw i32 %118, %132
  %.not.i21.i35.lver.orig = icmp ult i32 %133, 256
  %isnotneg.i22.i36.lver.orig = icmp sgt i32 %133, -1
  %134 = sext i1 %isnotneg.i22.i36.lver.orig to i8
  %135 = trunc nuw i32 %133 to i8
  %.0.i23.i37.lver.orig = select i1 %.not.i21.i35.lver.orig, i8 %135, i8 %134
  store i8 %.0.i23.i37.lver.orig, ptr %130, align 1, !tbaa !10
  %136 = getelementptr inbounds nuw i8, ptr %.028.i27.lver.orig, i64 3
  %137 = load i8, ptr %136, align 1, !tbaa !10
  %138 = zext i8 %137 to i32
  %139 = add nsw i32 %118, %138
  %.not.i24.i38.lver.orig = icmp ult i32 %139, 256
  %isnotneg.i25.i39.lver.orig = icmp sgt i32 %139, -1
  %140 = sext i1 %isnotneg.i25.i39.lver.orig to i8
  %141 = trunc nuw i32 %139 to i8
  %.0.i26.i40.lver.orig = select i1 %.not.i24.i38.lver.orig, i8 %141, i8 %140
  store i8 %.0.i26.i40.lver.orig, ptr %136, align 1, !tbaa !10
  %142 = getelementptr inbounds i8, ptr %.028.i27.lver.orig, i64 %2
  %143 = add nuw nsw i32 %.01727.i28.lver.orig, 1
  %exitcond.not.i41.lver.orig = icmp eq i32 %143, 4
  br i1 %exitcond.not.i41.lver.orig, label %.lver.check, label %.ph62.lver.orig, !llvm.loop !149

.ph62:                                            ; preds = %.lver.check61
  %scevgep64 = getelementptr i8, ptr %0, i64 10
  %load_initial65 = load i8, ptr %scevgep64, align 1
  br label %144

144:                                              ; preds = %144, %.ph62
  %store_forwarded66 = phi i8 [ %load_initial65, %.ph62 ], [ %.0.i26.i40, %144 ]
  %.028.i27 = phi ptr [ %113, %.ph62 ], [ %167, %144 ]
  %.01727.i28 = phi i32 [ 0, %.ph62 ], [ %168, %144 ]
  %145 = load i8, ptr %.028.i27, align 1, !tbaa !10
  %146 = zext i8 %145 to i32
  %147 = add nsw i32 %118, %146
  %.not.i.i29 = icmp ult i32 %147, 256
  %isnotneg.i.i30 = icmp sgt i32 %147, -1
  %148 = sext i1 %isnotneg.i.i30 to i8
  %149 = trunc nuw i32 %147 to i8
  %.0.i.i31 = select i1 %.not.i.i29, i8 %149, i8 %148
  store i8 %.0.i.i31, ptr %.028.i27, align 1, !tbaa !10
  %150 = getelementptr inbounds nuw i8, ptr %.028.i27, i64 1
  %151 = load i8, ptr %150, align 1, !tbaa !10
  %152 = zext i8 %151 to i32
  %153 = add nsw i32 %118, %152
  %.not.i18.i32 = icmp ult i32 %153, 256
  %isnotneg.i19.i33 = icmp sgt i32 %153, -1
  %154 = sext i1 %isnotneg.i19.i33 to i8
  %155 = trunc nuw i32 %153 to i8
  %.0.i20.i34 = select i1 %.not.i18.i32, i8 %155, i8 %154
  store i8 %.0.i20.i34, ptr %150, align 1, !tbaa !10
  %156 = getelementptr inbounds nuw i8, ptr %.028.i27, i64 2
  %157 = zext i8 %store_forwarded66 to i32
  %158 = add nsw i32 %118, %157
  %.not.i21.i35 = icmp ult i32 %158, 256
  %isnotneg.i22.i36 = icmp sgt i32 %158, -1
  %159 = sext i1 %isnotneg.i22.i36 to i8
  %160 = trunc nuw i32 %158 to i8
  %.0.i23.i37 = select i1 %.not.i21.i35, i8 %160, i8 %159
  store i8 %.0.i23.i37, ptr %156, align 1, !tbaa !10
  %161 = getelementptr inbounds nuw i8, ptr %.028.i27, i64 3
  %162 = load i8, ptr %161, align 1, !tbaa !10
  %163 = zext i8 %162 to i32
  %164 = add nsw i32 %118, %163
  %.not.i24.i38 = icmp ult i32 %164, 256
  %isnotneg.i25.i39 = icmp sgt i32 %164, -1
  %165 = sext i1 %isnotneg.i25.i39 to i8
  %166 = trunc nuw i32 %164 to i8
  %.0.i26.i40 = select i1 %.not.i24.i38, i8 %166, i8 %165
  store i8 %.0.i26.i40, ptr %161, align 1, !tbaa !10
  %167 = getelementptr inbounds nuw i8, ptr %.028.i27, i64 %2
  %168 = add nuw nsw i32 %.01727.i28, 1
  %exitcond.not.i41 = icmp eq i32 %168, 4
  br i1 %exitcond.not.i41, label %.lver.check, label %144, !llvm.loop !149

.lver.check:                                      ; preds = %.ph62.lver.orig, %144
  %169 = getelementptr inbounds nuw i8, ptr %0, i64 12
  %170 = getelementptr inbounds nuw i8, ptr %1, i64 96
  %171 = load i16, ptr %170, align 2, !tbaa !126
  %172 = sext i16 %171 to i32
  %173 = add nsw i32 %172, 4
  %174 = ashr i32 %173, 3
  store i16 0, ptr %170, align 2, !tbaa !126
  %ident.check.not = icmp eq i64 %2, 1
  br i1 %ident.check.not, label %.ph, label %.ph.lver.orig

.ph.lver.orig:                                    ; preds = %.lver.check, %.ph.lver.orig
  %.028.i43.lver.orig = phi ptr [ %198, %.ph.lver.orig ], [ %169, %.lver.check ]
  %.01727.i44.lver.orig = phi i32 [ %199, %.ph.lver.orig ], [ 0, %.lver.check ]
  %175 = load i8, ptr %.028.i43.lver.orig, align 1, !tbaa !10
  %176 = zext i8 %175 to i32
  %177 = add nsw i32 %174, %176
  %.not.i.i45.lver.orig = icmp ult i32 %177, 256
  %isnotneg.i.i46.lver.orig = icmp sgt i32 %177, -1
  %178 = sext i1 %isnotneg.i.i46.lver.orig to i8
  %179 = trunc nuw i32 %177 to i8
  %.0.i.i47.lver.orig = select i1 %.not.i.i45.lver.orig, i8 %179, i8 %178
  store i8 %.0.i.i47.lver.orig, ptr %.028.i43.lver.orig, align 1, !tbaa !10
  %180 = getelementptr inbounds nuw i8, ptr %.028.i43.lver.orig, i64 1
  %181 = load i8, ptr %180, align 1, !tbaa !10
  %182 = zext i8 %181 to i32
  %183 = add nsw i32 %174, %182
  %.not.i18.i48.lver.orig = icmp ult i32 %183, 256
  %isnotneg.i19.i49.lver.orig = icmp sgt i32 %183, -1
  %184 = sext i1 %isnotneg.i19.i49.lver.orig to i8
  %185 = trunc nuw i32 %183 to i8
  %.0.i20.i50.lver.orig = select i1 %.not.i18.i48.lver.orig, i8 %185, i8 %184
  store i8 %.0.i20.i50.lver.orig, ptr %180, align 1, !tbaa !10
  %186 = getelementptr inbounds nuw i8, ptr %.028.i43.lver.orig, i64 2
  %187 = load i8, ptr %186, align 1, !tbaa !10
  %188 = zext i8 %187 to i32
  %189 = add nsw i32 %174, %188
  %.not.i21.i51.lver.orig = icmp ult i32 %189, 256
  %isnotneg.i22.i52.lver.orig = icmp sgt i32 %189, -1
  %190 = sext i1 %isnotneg.i22.i52.lver.orig to i8
  %191 = trunc nuw i32 %189 to i8
  %.0.i23.i53.lver.orig = select i1 %.not.i21.i51.lver.orig, i8 %191, i8 %190
  store i8 %.0.i23.i53.lver.orig, ptr %186, align 1, !tbaa !10
  %192 = getelementptr inbounds nuw i8, ptr %.028.i43.lver.orig, i64 3
  %193 = load i8, ptr %192, align 1, !tbaa !10
  %194 = zext i8 %193 to i32
  %195 = add nsw i32 %174, %194
  %.not.i24.i54.lver.orig = icmp ult i32 %195, 256
  %isnotneg.i25.i55.lver.orig = icmp sgt i32 %195, -1
  %196 = sext i1 %isnotneg.i25.i55.lver.orig to i8
  %197 = trunc nuw i32 %195 to i8
  %.0.i26.i56.lver.orig = select i1 %.not.i24.i54.lver.orig, i8 %197, i8 %196
  store i8 %.0.i26.i56.lver.orig, ptr %192, align 1, !tbaa !10
  %198 = getelementptr inbounds i8, ptr %.028.i43.lver.orig, i64 %2
  %199 = add nuw nsw i32 %.01727.i44.lver.orig, 1
  %exitcond.not.i57.lver.orig = icmp eq i32 %199, 4
  br i1 %exitcond.not.i57.lver.orig, label %vp8_idct_dc_add_c.exit58, label %.ph.lver.orig, !llvm.loop !149

.ph:                                              ; preds = %.lver.check
  %scevgep = getelementptr i8, ptr %0, i64 14
  %load_initial = load i8, ptr %scevgep, align 1
  br label %200

200:                                              ; preds = %200, %.ph
  %store_forwarded = phi i8 [ %load_initial, %.ph ], [ %.0.i26.i56, %200 ]
  %.028.i43 = phi ptr [ %169, %.ph ], [ %223, %200 ]
  %.01727.i44 = phi i32 [ 0, %.ph ], [ %224, %200 ]
  %201 = load i8, ptr %.028.i43, align 1, !tbaa !10
  %202 = zext i8 %201 to i32
  %203 = add nsw i32 %174, %202
  %.not.i.i45 = icmp ult i32 %203, 256
  %isnotneg.i.i46 = icmp sgt i32 %203, -1
  %204 = sext i1 %isnotneg.i.i46 to i8
  %205 = trunc nuw i32 %203 to i8
  %.0.i.i47 = select i1 %.not.i.i45, i8 %205, i8 %204
  store i8 %.0.i.i47, ptr %.028.i43, align 1, !tbaa !10
  %206 = getelementptr inbounds nuw i8, ptr %.028.i43, i64 1
  %207 = load i8, ptr %206, align 1, !tbaa !10
  %208 = zext i8 %207 to i32
  %209 = add nsw i32 %174, %208
  %.not.i18.i48 = icmp ult i32 %209, 256
  %isnotneg.i19.i49 = icmp sgt i32 %209, -1
  %210 = sext i1 %isnotneg.i19.i49 to i8
  %211 = trunc nuw i32 %209 to i8
  %.0.i20.i50 = select i1 %.not.i18.i48, i8 %211, i8 %210
  store i8 %.0.i20.i50, ptr %206, align 1, !tbaa !10
  %212 = getelementptr inbounds nuw i8, ptr %.028.i43, i64 2
  %213 = zext i8 %store_forwarded to i32
  %214 = add nsw i32 %174, %213
  %.not.i21.i51 = icmp ult i32 %214, 256
  %isnotneg.i22.i52 = icmp sgt i32 %214, -1
  %215 = sext i1 %isnotneg.i22.i52 to i8
  %216 = trunc nuw i32 %214 to i8
  %.0.i23.i53 = select i1 %.not.i21.i51, i8 %216, i8 %215
  store i8 %.0.i23.i53, ptr %212, align 1, !tbaa !10
  %217 = getelementptr inbounds nuw i8, ptr %.028.i43, i64 3
  %218 = load i8, ptr %217, align 1, !tbaa !10
  %219 = zext i8 %218 to i32
  %220 = add nsw i32 %174, %219
  %.not.i24.i54 = icmp ult i32 %220, 256
  %isnotneg.i25.i55 = icmp sgt i32 %220, -1
  %221 = sext i1 %isnotneg.i25.i55 to i8
  %222 = trunc nuw i32 %220 to i8
  %.0.i26.i56 = select i1 %.not.i24.i54, i8 %222, i8 %221
  store i8 %.0.i26.i56, ptr %217, align 1, !tbaa !10
  %223 = getelementptr inbounds nuw i8, ptr %.028.i43, i64 %2
  %224 = add nuw nsw i32 %.01727.i44, 1
  %exitcond.not.i57 = icmp eq i32 %224, 4
  br i1 %exitcond.not.i57, label %vp8_idct_dc_add_c.exit58, label %200, !llvm.loop !149

vp8_idct_dc_add_c.exit58:                         ; preds = %.ph.lver.orig, %200
  ret void
}